target datalayout = "e-m:e-p270:32:32-p271:32:32-p272:64:64-i64:64-i128:128-f80:128-n8:16:32:64-S128"
target triple = "x86_64-pc-linux-gnu"

%struct.pointf_s = type { double, double }
%struct.anon = type { ptr, ptr }

; Function Attrs: nounwind uwtable
define internal zeroext i1 @inside(ptr noundef %0, double %1, double %2) #0 {
  %4 = alloca %struct.pointf_s, align 8
  %5 = alloca ptr, align 8
  %6 = getelementptr inbounds nuw { double, double }, ptr %4, i32 0, i32 0
  store double %1, ptr %6, align 8
  %7 = getelementptr inbounds nuw { double, double }, ptr %4, i32 0, i32 1
  store double %2, ptr %7, align 8
  store ptr %0, ptr %5, align 8, !tbaa !65
  %8 = getelementptr inbounds nuw %struct.pointf_s, ptr %4, i32 0, i32 0
  %9 = load double, ptr %8, align 8, !tbaa !57
  %10 = load ptr, ptr %5, align 8, !tbaa !65
  %11 = getelementptr inbounds nuw %struct.anon, ptr %10, i32 0, i32 0
  %12 = load ptr, ptr %11, align 8, !tbaa !16
  %13 = getelementptr inbounds %struct.pointf_s, ptr %12, i64 0
  %14 = getelementptr inbounds nuw %struct.pointf_s, ptr %13, i32 0, i32 0
  %15 = load double, ptr %14, align 8, !tbaa !57
  %16 = fsub double %9, %15
  %17 = getelementptr inbounds nuw %struct.pointf_s, ptr %4, i32 0, i32 0
  %18 = load double, ptr %17, align 8, !tbaa !57
  %19 = load ptr, ptr %5, align 8, !tbaa !65
  %20 = getelementptr inbounds nuw %struct.anon, ptr %19, i32 0, i32 0
  %21 = load ptr, ptr %20, align 8, !tbaa !16
  %22 = getelementptr inbounds %struct.pointf_s, ptr %21, i64 0
  %23 = getelementptr inbounds nuw %struct.pointf_s, ptr %22, i32 0, i32 0
  %24 = load double, ptr %23, align 8, !tbaa !57
  %25 = fsub double %18, %24
  %26 = getelementptr inbounds nuw %struct.pointf_s, ptr %4, i32 0, i32 1
  %27 = load double, ptr %26, align 8, !tbaa !58
  %28 = load ptr, ptr %5, align 8, !tbaa !65
  %29 = getelementptr inbounds nuw %struct.anon, ptr %28, i32 0, i32 0
  %30 = load ptr, ptr %29, align 8, !tbaa !16
  %31 = getelementptr inbounds %struct.pointf_s, ptr %30, i64 0
  %32 = getelementptr inbounds nuw %struct.pointf_s, ptr %31, i32 0, i32 1
  %33 = load double, ptr %32, align 8, !tbaa !58
  %34 = fsub double %27, %33
  %35 = getelementptr inbounds nuw %struct.pointf_s, ptr %4, i32 0, i32 1
  %36 = load double, ptr %35, align 8, !tbaa !58
  %37 = load ptr, ptr %5, align 8, !tbaa !65
  %38 = getelementptr inbounds nuw %struct.anon, ptr %37, i32 0, i32 0
  %39 = load ptr, ptr %38, align 8, !tbaa !16
  %40 = getelementptr inbounds %struct.pointf_s, ptr %39, i64 0
  %41 = getelementptr inbounds nuw %struct.pointf_s, ptr %40, i32 0, i32 1
  %42 = load double, ptr %41, align 8, !tbaa !58
  %43 = fsub double %36, %42
  %44 = fmul double %34, %43
  %45 = call double @llvm.fmuladd.f64(double %16, double %25, double %44)
  %46 = load ptr, ptr %5, align 8, !tbaa !65
  %47 = getelementptr inbounds nuw %struct.anon, ptr %46, i32 0, i32 1
  %48 = load ptr, ptr %47, align 8, !tbaa !16
  %49 = getelementptr inbounds double, ptr %48, i64 0
  %50 = load double, ptr %49, align 8, !tbaa !53
  %51 = fcmp ole double %45, %50
  ret i1 %51
}