; Function Attrs: mustprogress nofree norecurse nosync nounwind willreturn memory(read, inaccessiblemem: none) uwtable
define internal zeroext i1 @inside(ptr noundef readonly captures(none) %0, double %1, double %2) #5 {
  %4 = load ptr, ptr %0, align 8, !tbaa !10
  %5 = load double, ptr %4, align 8, !tbaa !59
  %6 = fsub double %1, %5
  %7 = getelementptr inbounds nuw i8, ptr %4, i64 8
  %8 = load double, ptr %7, align 8, !tbaa !60
  %9 = fsub double %2, %8
  %10 = fmul double %9, %9
  %11 = tail call double @llvm.fmuladd.f64(double %6, double %6, double %10)
  %12 = getelementptr inbounds nuw i8, ptr %0, i64 8
  %13 = load ptr, ptr %12, align 8, !tbaa !10
  %14 = load double, ptr %13, align 8, !tbaa !55
  %15 = fcmp ole double %11, %14
  ret i1 %15
}